target datalayout = "e-m:e-p270:32:32-p271:32:32-p272:64:64-i64:64-i128:128-f80:128-n8:16:32:64-S128"
target triple = "x86_64-pc-linux-gnu"

%struct.AVFilterContext = type { ptr, ptr, ptr, ptr, ptr, i32, ptr, ptr, i32, ptr, ptr, i32, i32, ptr, ptr, ptr, ptr, i32, ptr, i32, i32 }
%struct.AVFilter = type { ptr, ptr, ptr, ptr, ptr, i32 }
%struct.AudioSDRContext = type { i32, i64, double, ptr, [2 x ptr], ptr }
%struct.AVFilterLink = type { ptr, ptr, ptr, ptr, i32, i32, i32, i32, %struct.AVRational, i32, i32, i32, %struct.AVChannelLayout, %struct.AVRational, ptr, i32, %struct.AVFilterFormatsConfig, %struct.AVFilterFormatsConfig }
%struct.AVChannelLayout = type { i32, i32, %union.anon.1, ptr }
%union.anon.1 = type { i64 }
%struct.AVRational = type { i32, i32 }
%struct.AVFilterFormatsConfig = type { ptr, ptr, ptr, ptr, ptr }

@.str = private unnamed_addr constant [5 x i8] c"asdr\00", align 1
@.str.5 = private unnamed_addr constant [7 x i8] c"asisdr\00", align 1

; Function Attrs: nounwind uwtable
define internal i32 @config_output(ptr noundef %0) #1 {
  %2 = alloca i32, align 4
  %3 = alloca ptr, align 8
  %4 = alloca ptr, align 8
  %5 = alloca ptr, align 8
  %6 = alloca ptr, align 8
  %7 = alloca i32, align 4
  store ptr %0, ptr %3, align 8, !tbaa !46
  call void @llvm.lifetime.start.p0(i64 8, ptr %4) #7
  %8 = load ptr, ptr %3, align 8, !tbaa !46
  %9 = getelementptr inbounds nuw %struct.AVFilterLink, ptr %8, i32 0, i32 0
  %10 = load ptr, ptr %9, align 8, !tbaa !67
  store ptr %10, ptr %4, align 8, !tbaa !4
  call void @llvm.lifetime.start.p0(i64 8, ptr %5) #7
  %11 = load ptr, ptr %4, align 8, !tbaa !4
  %12 = getelementptr inbounds nuw %struct.AVFilterContext, ptr %11, i32 0, i32 4
  %13 = load ptr, ptr %12, align 8, !tbaa !49
  %14 = getelementptr inbounds ptr, ptr %13, i64 0
  %15 = load ptr, ptr %14, align 8, !tbaa !46
  store ptr %15, ptr %5, align 8, !tbaa !46
  call void @llvm.lifetime.start.p0(i64 8, ptr %6) #7
  %16 = load ptr, ptr %4, align 8, !tbaa !4
  %17 = getelementptr inbounds nuw %struct.AVFilterContext, ptr %16, i32 0, i32 9
  %18 = load ptr, ptr %17, align 8, !tbaa !9
  store ptr %18, ptr %6, align 8, !tbaa !22
  %19 = load ptr, ptr %5, align 8, !tbaa !46
  %20 = getelementptr inbounds nuw %struct.AVFilterLink, ptr %19, i32 0, i32 12
  %21 = getelementptr inbounds nuw %struct.AVChannelLayout, ptr %20, i32 0, i32 1
  %22 = load i32, ptr %21, align 4, !tbaa !54
  %23 = load ptr, ptr %6, align 8, !tbaa !22
  %24 = getelementptr inbounds nuw %struct.AudioSDRContext, ptr %23, i32 0, i32 0
  store i32 %22, ptr %24, align 8, !tbaa !28
  %25 = load ptr, ptr %4, align 8, !tbaa !4
  %26 = getelementptr inbounds nuw %struct.AVFilterContext, ptr %25, i32 0, i32 1
  %27 = load ptr, ptr %26, align 8, !tbaa !24
  %28 = getelementptr inbounds nuw %struct.AVFilter, ptr %27, i32 0, i32 0
  %29 = load ptr, ptr %28, align 8, !tbaa !25
  %30 = call i32 @strcmp(ptr noundef %29, ptr noundef @.str) #8
  %31 = icmp ne i32 %30, 0
  br i1 %31, label %40, label %32

32:                                               ; preds = %1
  %33 = load ptr, ptr %5, align 8, !tbaa !46
  %34 = getelementptr inbounds nuw %struct.AVFilterLink, ptr %33, i32 0, i32 5
  %35 = load i32, ptr %34, align 4, !tbaa !68
  %36 = icmp eq i32 %35, 8
  %37 = select i1 %36, ptr @sdr_fltp, ptr @sdr_dblp
  %38 = load ptr, ptr %6, align 8, !tbaa !22
  %39 = getelementptr inbounds nuw %struct.AudioSDRContext, ptr %38, i32 0, i32 5
  store ptr %37, ptr %39, align 8, !tbaa !53
  br label %65

40:                                               ; preds = %1
  %41 = load ptr, ptr %4, align 8, !tbaa !4
  %42 = getelementptr inbounds nuw %struct.AVFilterContext, ptr %41, i32 0, i32 1
  %43 = load ptr, ptr %42, align 8, !tbaa !24
  %44 = getelementptr inbounds nuw %struct.AVFilter, ptr %43, i32 0, i32 0
  %45 = load ptr, ptr %44, align 8, !tbaa !25
  %46 = call i32 @strcmp(ptr noundef %45, ptr noundef @.str.5) #8
  %47 = icmp ne i32 %46, 0
  br i1 %47, label %56, label %48

48:                                               ; preds = %40
  %49 = load ptr, ptr %5, align 8, !tbaa !46
  %50 = getelementptr inbounds nuw %struct.AVFilterLink, ptr %49, i32 0, i32 5
  %51 = load i32, ptr %50, align 4, !tbaa !68
  %52 = icmp eq i32 %51, 8
  %53 = select i1 %52, ptr @sisdr_fltp, ptr @sisdr_dblp
  %54 = load ptr, ptr %6, align 8, !tbaa !22
  %55 = getelementptr inbounds nuw %struct.AudioSDRContext, ptr %54, i32 0, i32 5
  store ptr %53, ptr %55, align 8, !tbaa !53
  br label %64

56:                                               ; preds = %40
  %57 = load ptr, ptr %5, align 8, !tbaa !46
  %58 = getelementptr inbounds nuw %struct.AVFilterLink, ptr %57, i32 0, i32 5
  %59 = load i32, ptr %58, align 4, !tbaa !68
  %60 = icmp eq i32 %59, 8
  %61 = select i1 %60, ptr @psnr_fltp, ptr @psnr_dblp
  %62 = load ptr, ptr %6, align 8, !tbaa !22
  %63 = getelementptr inbounds nuw %struct.AudioSDRContext, ptr %62, i32 0, i32 5
  store ptr %61, ptr %63, align 8, !tbaa !53
  br label %64

64:                                               ; preds = %56, %48
  br label %65

65:                                               ; preds = %64, %32
  %66 = load ptr, ptr %5, align 8, !tbaa !46
  %67 = getelementptr inbounds nuw %struct.AVFilterLink, ptr %66, i32 0, i32 5
  %68 = load i32, ptr %67, align 4, !tbaa !68
  %69 = icmp eq i32 %68, 8
  %70 = select nsz i1 %69, double 0x47EFFFFFE0000000, double 0x7FEFFFFFFFFFFFFF
  %71 = load ptr, ptr %6, align 8, !tbaa !22
  %72 = getelementptr inbounds nuw %struct.AudioSDRContext, ptr %71, i32 0, i32 2
  store double %70, ptr %72, align 8, !tbaa !42
  %73 = load ptr, ptr %3, align 8, !tbaa !46
  %74 = getelementptr inbounds nuw %struct.AVFilterLink, ptr %73, i32 0, i32 12
  %75 = getelementptr inbounds nuw %struct.AVChannelLayout, ptr %74, i32 0, i32 1
  %76 = load i32, ptr %75, align 4, !tbaa !54
  %77 = sext i32 %76 to i64
  %78 = call noalias ptr @av_calloc(i64 noundef %77, i64 noundef 24)
  %79 = load ptr, ptr %6, align 8, !tbaa !22
  %80 = getelementptr inbounds nuw %struct.AudioSDRContext, ptr %79, i32 0, i32 3
  store ptr %78, ptr %80, align 8, !tbaa !33
  %81 = load ptr, ptr %6, align 8, !tbaa !22
  %82 = getelementptr inbounds nuw %struct.AudioSDRContext, ptr %81, i32 0, i32 3
  %83 = load ptr, ptr %82, align 8, !tbaa !33
  %84 = icmp ne ptr %83, null
  br i1 %84, label %86, label %85

85:                                               ; preds = %65
  store i32 -12, ptr %2, align 4
  store i32 1, ptr %7, align 4
  br label %87

86:                                               ; preds = %65
  store i32 0, ptr %2, align 4
  store i32 1, ptr %7, align 4
  br label %87

87:                                               ; preds = %86, %85
  call void @llvm.lifetime.end.p0(i64 8, ptr %6) #7
  call void @llvm.lifetime.end.p0(i64 8, ptr %5) #7
  call void @llvm.lifetime.end.p0(i64 8, ptr %4) #7
  %88 = load i32, ptr %2, align 4
  ret i32 %88
}