; Function Attrs: nounwind uwtable
define internal range(i32 -12, 1) i32 @config_output(ptr noundef readonly captures(none) %0) #1 {
  %2 = load ptr, ptr %0, align 8, !tbaa !63
  %3 = getelementptr inbounds nuw i8, ptr %2, i64 32
  %4 = load ptr, ptr %3, align 8, !tbaa !43
  %5 = load ptr, ptr %4, align 8, !tbaa !40
  %6 = getelementptr inbounds nuw i8, ptr %2, i64 72
  %7 = load ptr, ptr %6, align 8, !tbaa !4
  %8 = getelementptr inbounds nuw i8, ptr %5, i64 76
  %9 = load i32, ptr %8, align 4, !tbaa !48
  store i32 %9, ptr %7, align 8, !tbaa !23
  %10 = getelementptr inbounds nuw i8, ptr %2, i64 8
  %11 = load ptr, ptr %10, align 8, !tbaa !20
  %12 = load ptr, ptr %11, align 8, !tbaa !21
  %13 = tail call i32 @strcmp(ptr noundef nonnull dereferenceable(1) %12, ptr noundef nonnull dereferenceable(5) @.str) #9
  %.not = icmp eq i32 %13, 0
  br i1 %.not, label %14, label %20

14:                                               ; preds = %1
  %15 = getelementptr inbounds nuw i8, ptr %5, i64 36
  %16 = load i32, ptr %15, align 4, !tbaa !64
  %17 = icmp eq i32 %16, 8
  %18 = select i1 %17, ptr @sdr_fltp, ptr @sdr_dblp
  %19 = getelementptr inbounds nuw i8, ptr %7, i64 48
  store ptr %18, ptr %19, align 8, !tbaa !47
  br label %30

20:                                               ; preds = %1
  %21 = tail call i32 @strcmp(ptr noundef nonnull dereferenceable(1) %12, ptr noundef nonnull dereferenceable(7) @.str.5) #9
  %.not18 = icmp eq i32 %21, 0
  %22 = getelementptr inbounds nuw i8, ptr %5, i64 36
  %23 = load i32, ptr %22, align 4, !tbaa !64
  %24 = icmp eq i32 %23, 8
  %25 = getelementptr inbounds nuw i8, ptr %7, i64 48
  br i1 %.not18, label %26, label %28

26:                                               ; preds = %20
  %27 = select i1 %24, ptr @sisdr_fltp, ptr @sisdr_dblp
  store ptr %27, ptr %25, align 8, !tbaa !47
  br label %30

28:                                               ; preds = %20
  %29 = select i1 %24, ptr @psnr_fltp, ptr @psnr_dblp
  store ptr %29, ptr %25, align 8, !tbaa !47
  br label %30

30:                                               ; preds = %26, %28, %14
  %31 = phi i32 [ %23, %26 ], [ %23, %28 ], [ %16, %14 ]
  %32 = icmp eq i32 %31, 8
  %33 = select nsz i1 %32, double 0x47EFFFFFE0000000, double 0x7FEFFFFFFFFFFFFF
  %34 = getelementptr inbounds nuw i8, ptr %7, i64 16
  store double %33, ptr %34, align 8, !tbaa !36
  %35 = getelementptr inbounds nuw i8, ptr %0, i64 76
  %36 = load i32, ptr %35, align 4, !tbaa !48
  %37 = sext i32 %36 to i64
  %38 = tail call noalias ptr @av_calloc(i64 noundef %37, i64 noundef 24) #10
  %39 = getelementptr inbounds nuw i8, ptr %7, i64 24
  store ptr %38, ptr %39, align 8, !tbaa !28
  %.not19 = icmp eq ptr %38, null
  %. = select i1 %.not19, i32 -12, i32 0
  ret i32 %.
}